target datalayout = "e-m:e-p270:32:32-p271:32:32-p272:64:64-i64:64-i128:128-f80:128-n8:16:32:64-S128"
target triple = "x86_64-pc-linux-gnu"

@.str.621 = private unnamed_addr constant [16 x i8] c"OCSP response: \00", align 1
@.str.622 = private unnamed_addr constant [18 x i8] c"no response sent\0A\00", align 1
@.str.623 = private unnamed_addr constant [22 x i8] c"response parse error\0A\00", align 1
@.str.624 = private unnamed_addr constant [41 x i8] c"\0A======================================\0A\00", align 1
@.str.625 = private unnamed_addr constant [40 x i8] c"======================================\0A\00", align 1

; Function Attrs: nounwind uwtable
define internal i32 @ocsp_resp_cb(ptr noundef %0, ptr noundef %1) #0 {
  %3 = alloca i32, align 4
  %4 = alloca ptr, align 8
  %5 = alloca ptr, align 8
  %6 = alloca ptr, align 8
  %7 = alloca i32, align 4
  %8 = alloca ptr, align 8
  %9 = alloca i32, align 4
  store ptr %0, ptr %4, align 8, !tbaa !13
  store ptr %1, ptr %5, align 8, !tbaa !44
  call void @llvm.lifetime.start.p0(i64 8, ptr %6) #10
  call void @llvm.lifetime.start.p0(i64 4, ptr %7) #10
  call void @llvm.lifetime.start.p0(i64 8, ptr %8) #10
  %10 = load ptr, ptr %4, align 8, !tbaa !13
  %11 = call i64 @SSL_ctrl(ptr noundef %10, i32 noundef 70, i64 noundef 0, ptr noundef %6)
  %12 = trunc i64 %11 to i32
  store i32 %12, ptr %7, align 4, !tbaa !4
  %13 = load ptr, ptr %5, align 8, !tbaa !44
  %14 = call i32 @BIO_puts(ptr noundef %13, ptr noundef @.str.621)
  %15 = load ptr, ptr %6, align 8, !tbaa !29
  %16 = icmp eq ptr %15, null
  br i1 %16, label %17, label %20

17:                                               ; preds = %2
  %18 = load ptr, ptr %5, align 8, !tbaa !44
  %19 = call i32 @BIO_puts(ptr noundef %18, ptr noundef @.str.622)
  store i32 1, ptr %3, align 4
  store i32 1, ptr %9, align 4
  br label %42

20:                                               ; preds = %2
  %21 = load i32, ptr %7, align 4, !tbaa !4
  %22 = sext i32 %21 to i64
  %23 = call ptr @d2i_OCSP_RESPONSE(ptr noundef null, ptr noundef %6, i64 noundef %22)
  store ptr %23, ptr %8, align 8, !tbaa !125
  %24 = load ptr, ptr %8, align 8, !tbaa !125
  %25 = icmp eq ptr %24, null
  br i1 %25, label %26, label %33

26:                                               ; preds = %20
  %27 = load ptr, ptr %5, align 8, !tbaa !44
  %28 = call i32 @BIO_puts(ptr noundef %27, ptr noundef @.str.623)
  %29 = load ptr, ptr %5, align 8, !tbaa !44
  %30 = load ptr, ptr %6, align 8, !tbaa !29
  %31 = load i32, ptr %7, align 4, !tbaa !4
  %32 = call i32 @BIO_dump_indent(ptr noundef %29, ptr noundef %30, i32 noundef %31, i32 noundef 4)
  store i32 0, ptr %3, align 4
  store i32 1, ptr %9, align 4
  br label %42

33:                                               ; preds = %20
  %34 = load ptr, ptr %5, align 8, !tbaa !44
  %35 = call i32 @BIO_puts(ptr noundef %34, ptr noundef @.str.624)
  %36 = load ptr, ptr %5, align 8, !tbaa !44
  %37 = load ptr, ptr %8, align 8, !tbaa !125
  %38 = call i32 @OCSP_RESPONSE_print(ptr noundef %36, ptr noundef %37, i64 noundef 0)
  %39 = load ptr, ptr %5, align 8, !tbaa !44
  %40 = call i32 @BIO_puts(ptr noundef %39, ptr noundef @.str.625)
  %41 = load ptr, ptr %8, align 8, !tbaa !125
  call void @OCSP_RESPONSE_free(ptr noundef %41)
  store i32 1, ptr %3, align 4
  store i32 1, ptr %9, align 4
  br label %42

42:                                               ; preds = %33, %26, %17
  call void @llvm.lifetime.end.p0(i64 8, ptr %8) #10
  call void @llvm.lifetime.end.p0(i64 4, ptr %7) #10
  call void @llvm.lifetime.end.p0(i64 8, ptr %6) #10
  %43 = load i32, ptr %3, align 4
  ret i32 %43
}