; Function Attrs: nounwind uwtable
define internal range(i32 0, 2) i32 @ocsp_resp_cb(ptr noundef %0, ptr noundef %1) #0 {
  %3 = alloca ptr, align 8
  call void @llvm.lifetime.start.p0(i64 8, ptr nonnull %3) #15
  %4 = call i64 @SSL_ctrl(ptr noundef %0, i32 noundef 70, i64 noundef 0, ptr noundef nonnull %3) #15
  %5 = trunc i64 %4 to i32
  %6 = call i32 @BIO_puts(ptr noundef %1, ptr noundef nonnull @.str.621) #15
  %7 = load ptr, ptr %3, align 8, !tbaa !11
  %8 = icmp eq ptr %7, null
  br i1 %8, label %9, label %11

9:                                                ; preds = %2
  %10 = call i32 @BIO_puts(ptr noundef %1, ptr noundef nonnull @.str.622) #15
  br label %23

11:                                               ; preds = %2
  %sext = shl i64 %4, 32
  %12 = ashr exact i64 %sext, 32
  %13 = call ptr @d2i_OCSP_RESPONSE(ptr noundef null, ptr noundef nonnull %3, i64 noundef %12) #15
  %14 = icmp eq ptr %13, null
  br i1 %14, label %15, label %19

15:                                               ; preds = %11
  %16 = call i32 @BIO_puts(ptr noundef %1, ptr noundef nonnull @.str.623) #15
  %17 = load ptr, ptr %3, align 8, !tbaa !11
  %18 = call i32 @BIO_dump_indent(ptr noundef %1, ptr noundef %17, i32 noundef %5, i32 noundef 4) #15
  br label %23

19:                                               ; preds = %11
  %20 = call i32 @BIO_puts(ptr noundef %1, ptr noundef nonnull @.str.624) #15
  %21 = call i32 @OCSP_RESPONSE_print(ptr noundef %1, ptr noundef nonnull %13, i64 noundef 0) #15
  %22 = call i32 @BIO_puts(ptr noundef %1, ptr noundef nonnull @.str.625) #15
  call void @OCSP_RESPONSE_free(ptr noundef nonnull %13) #15
  br label %23

23:                                               ; preds = %19, %15, %9
  %.0 = phi i32 [ 1, %9 ], [ 0, %15 ], [ 1, %19 ]
  call void @llvm.lifetime.end.p0(i64 8, ptr nonnull %3) #15
  ret i32 %.0
}